target datalayout = "e-m:e-p270:32:32-p271:32:32-p272:64:64-i64:64-i128:128-f80:128-n8:16:32:64-S128"
target triple = "x86_64-pc-linux-gnu"

%struct.QTailQLink = type { ptr, ptr }
%struct.TCGLabel = type { i8, i8, i16, %union.anon.0, %struct.anon, %struct.anon.1, %struct.anon.2 }
%union.anon.0 = type { i64 }
%struct.anon = type { ptr, ptr }
%struct.anon.1 = type { ptr, ptr }
%struct.anon.2 = type { ptr }
%struct.TCGLabelUse = type { %struct.anon.6, ptr }
%struct.anon.6 = type { ptr }
%struct.TCGContext = type { ptr, ptr, ptr, ptr, ptr, i32, i32, i32, i32, i32, i32, i32, i8, i8, i8, i32, i32, i64, i64, i64, ptr, ptr, ptr, ptr, ptr, i64, ptr, ptr, ptr, ptr, %struct.anon.3, ptr, ptr, ptr, ptr, ptr, [6 x ptr], [6 x %struct.TCGTempSet], [512 x %struct.TCGTemp], %union.anon.4, %union.anon.4, %struct.anon.5, ptr, [32 x ptr], [512 x i16], ptr, [1 x %struct.__jmp_buf_tag] }
%struct.anon.3 = type { ptr, ptr }
%struct.TCGTempSet = type { [8 x i64] }
%struct.TCGTemp = type { i64, i64, ptr, i64, ptr, i64, ptr }
%union.anon.4 = type { %struct.QTailQLink }
%struct.anon.5 = type { ptr, ptr }
%struct.__jmp_buf_tag = type { [8 x i64], i32, %struct.__sigset_t }
%struct.__sigset_t = type { [16 x i64] }

@tcg_ctx = external thread_local global ptr, align 8

; Function Attrs: inlinehint nounwind sspstrong uwtable
define internal ptr @tcg_malloc(i32 noundef %0) #4 {
  %2 = alloca ptr, align 8
  %3 = alloca i32, align 4
  %4 = alloca ptr, align 8
  %5 = alloca ptr, align 8
  %6 = alloca ptr, align 8
  %7 = alloca i32, align 4
  store i32 %0, ptr %3, align 4
  call void @llvm.lifetime.start.p0(i64 8, ptr %4) #7
  %8 = call align 8 ptr @llvm.threadlocal.address.p0(ptr align 8 @tcg_ctx)
  %9 = load ptr, ptr %8, align 8
  store ptr %9, ptr %4, align 8
  call void @llvm.lifetime.start.p0(i64 8, ptr %5) #7
  store ptr null, ptr %5, align 8, !annotation !6
  call void @llvm.lifetime.start.p0(i64 8, ptr %6) #7
  store ptr null, ptr %6, align 8, !annotation !6
  %10 = load i32, ptr %3, align 4
  %11 = add i32 %10, 8
  %12 = sub i32 %11, 1
  %13 = sdiv i32 %12, 8
  %14 = mul i32 %13, 8
  store i32 %14, ptr %3, align 4
  %15 = load ptr, ptr %4, align 8
  %16 = getelementptr inbounds nuw %struct.TCGContext, ptr %15, i32 0, i32 0
  %17 = load ptr, ptr %16, align 8
  store ptr %17, ptr %5, align 8
  %18 = load ptr, ptr %5, align 8
  %19 = load i32, ptr %3, align 4
  %20 = sext i32 %19 to i64
  %21 = getelementptr inbounds i8, ptr %18, i64 %20
  store ptr %21, ptr %6, align 8
  %22 = load ptr, ptr %6, align 8
  %23 = load ptr, ptr %4, align 8
  %24 = getelementptr inbounds nuw %struct.TCGContext, ptr %23, i32 0, i32 1
  %25 = load ptr, ptr %24, align 8
  %26 = icmp ugt ptr %22, %25
  %27 = xor i1 %26, true
  %28 = xor i1 %27, true
  %29 = zext i1 %28 to i32
  %30 = sext i32 %29 to i64
  %31 = call i64 @llvm.expect.i64(i64 %30, i64 0)
  %32 = icmp ne i64 %31, 0
  br i1 %32, label %33, label %38

33:                                               ; preds = %1
  %34 = call align 8 ptr @llvm.threadlocal.address.p0(ptr align 8 @tcg_ctx)
  %35 = load ptr, ptr %34, align 8
  %36 = load i32, ptr %3, align 4
  %37 = call ptr @tcg_malloc_internal(ptr noundef %35, i32 noundef %36)
  store ptr %37, ptr %2, align 8
  store i32 1, ptr %7, align 4
  br label %43

38:                                               ; preds = %1
  %39 = load ptr, ptr %6, align 8
  %40 = load ptr, ptr %4, align 8
  %41 = getelementptr inbounds nuw %struct.TCGContext, ptr %40, i32 0, i32 0
  store ptr %39, ptr %41, align 8
  %42 = load ptr, ptr %5, align 8
  store ptr %42, ptr %2, align 8
  store i32 1, ptr %7, align 4
  br label %43

43:                                               ; preds = %38, %33
  call void @llvm.lifetime.end.p0(i64 8, ptr %6) #7
  call void @llvm.lifetime.end.p0(i64 8, ptr %5) #7
  call void @llvm.lifetime.end.p0(i64 8, ptr %4) #7
  %44 = load ptr, ptr %2, align 8
  ret ptr %44
}

; Function Attrs: nounwind sspstrong uwtable
define internal void @add_as_label_use(ptr noundef %0, ptr noundef %1) #3 {
  %3 = alloca ptr, align 8
  %4 = alloca ptr, align 8
  %5 = alloca ptr, align 8
  store ptr %0, ptr %3, align 8
  store ptr %1, ptr %4, align 8
  call void @llvm.lifetime.start.p0(i64 8, ptr %5) #7
  %6 = call ptr @tcg_malloc(i32 noundef 16)
  store ptr %6, ptr %5, align 8
  %7 = load ptr, ptr %4, align 8
  %8 = load ptr, ptr %5, align 8
  %9 = getelementptr inbounds nuw %struct.TCGLabelUse, ptr %8, i32 0, i32 1
  store ptr %7, ptr %9, align 8
  br label %10

10:                                               ; preds = %2
  %11 = load ptr, ptr %5, align 8
  %12 = getelementptr inbounds nuw %struct.TCGLabelUse, ptr %11, i32 0, i32 0
  %13 = getelementptr inbounds nuw %struct.anon.6, ptr %12, i32 0, i32 0
  store ptr null, ptr %13, align 8
  %14 = load ptr, ptr %5, align 8
  %15 = load ptr, ptr %3, align 8
  %16 = getelementptr inbounds nuw %struct.TCGLabel, ptr %15, i32 0, i32 4
  %17 = getelementptr inbounds nuw %struct.anon, ptr %16, i32 0, i32 1
  %18 = load ptr, ptr %17, align 8
  store ptr %14, ptr %18, align 8
  %19 = load ptr, ptr %5, align 8
  %20 = getelementptr inbounds nuw %struct.TCGLabelUse, ptr %19, i32 0, i32 0
  %21 = getelementptr inbounds nuw %struct.anon.6, ptr %20, i32 0, i32 0
  %22 = load ptr, ptr %3, align 8
  %23 = getelementptr inbounds nuw %struct.TCGLabel, ptr %22, i32 0, i32 4
  %24 = getelementptr inbounds nuw %struct.anon, ptr %23, i32 0, i32 1
  store ptr %21, ptr %24, align 8
  br label %25

25:                                               ; preds = %10
  br label %26

26:                                               ; preds = %25
  call void @llvm.lifetime.end.p0(i64 8, ptr %5) #7
  ret void
}

; Function Attrs: inlinehint nounwind sspstrong uwtable
define internal i64 @label_arg(ptr noundef %0) #4 {
  %2 = alloca ptr, align 8
  store ptr %0, ptr %2, align 8
  %3 = load ptr, ptr %2, align 8
  %4 = ptrtoint ptr %3 to i64
  ret i64 %4
}

; Function Attrs: nounwind sspstrong uwtable
define dso_local void @tcg_gen_br(ptr noundef %0) #3 {
  %2 = alloca ptr, align 8
  store ptr %0, ptr %2, align 8
  %3 = load ptr, ptr %2, align 8
  %4 = load ptr, ptr %2, align 8
  %5 = call i64 @label_arg(ptr noundef %4)
  %6 = call ptr @tcg_gen_op1(i32 noundef 3, i32 noundef 0, i64 noundef %5)
  call void @add_as_label_use(ptr noundef %3, ptr noundef %6)
  ret void
}

; Function Attrs: nounwind sspstrong uwtable
define dso_local void @tcg_gen_brcondi_i32(i32 noundef %0, ptr noundef %1, i32 noundef %2, ptr noundef %3) #3 {
  %5 = alloca i32, align 4
  %6 = alloca ptr, align 8
  %7 = alloca i32, align 4
  %8 = alloca ptr, align 8
  store i32 %0, ptr %5, align 4
  store ptr %1, ptr %6, align 8
  store i32 %2, ptr %7, align 4
  store ptr %3, ptr %8, align 8
  %9 = load i32, ptr %5, align 4
  %10 = icmp eq i32 %9, 1
  br i1 %10, label %11, label %13

11:                                               ; preds = %4
  %12 = load ptr, ptr %8, align 8
  call void @tcg_gen_br(ptr noundef %12)
  br label %23

13:                                               ; preds = %4
  %14 = load i32, ptr %5, align 4
  %15 = icmp ne i32 %14, 0
  br i1 %15, label %16, label %22

16:                                               ; preds = %13
  %17 = load i32, ptr %5, align 4
  %18 = load ptr, ptr %6, align 8
  %19 = load i32, ptr %7, align 4
  %20 = call ptr @tcg_constant_i32(i32 noundef %19)
  %21 = load ptr, ptr %8, align 8
  call void @tcg_gen_brcond_i32(i32 noundef %17, ptr noundef %18, ptr noundef %20, ptr noundef %21)
  br label %22

22:                                               ; preds = %16, %13
  br label %23

23:                                               ; preds = %22, %11
  ret void
}