; Function Attrs: nounwind sspstrong uwtable
define dso_local void @tcg_gen_brcondi_i32(i32 noundef %0, ptr noundef %1, i32 noundef %2, ptr noundef %3) local_unnamed_addr #2 {
  switch i32 %0, label %21 [
    i32 1, label %5
    i32 0, label %23
  ]

5:                                                ; preds = %4
  %6 = ptrtoint ptr %3 to i64
  %7 = tail call ptr @tcg_gen_op1(i32 noundef 3, i32 noundef 0, i64 noundef %6)
  %8 = tail call align 8 ptr @llvm.threadlocal.address.p0(ptr align 8 @tcg_ctx)
  %9 = load ptr, ptr %8, align 8
  %10 = load ptr, ptr %9, align 8
  %11 = getelementptr inbounds nuw i8, ptr %10, i64 16
  %12 = getelementptr inbounds nuw i8, ptr %9, i64 8
  %13 = load ptr, ptr %12, align 8
  %14 = icmp ugt ptr %11, %13
  br i1 %14, label %15, label %17, !prof !4

15:                                               ; preds = %5
  %16 = tail call ptr @tcg_malloc_internal(ptr noundef nonnull %9, i32 noundef 16) #6
  br label %tcg_gen_br.exit

17:                                               ; preds = %5
  store ptr %11, ptr %9, align 8
  br label %tcg_gen_br.exit

tcg_gen_br.exit:                                  ; preds = %15, %17
  %.0.i.i.i = phi ptr [ %16, %15 ], [ %10, %17 ]
  %18 = getelementptr inbounds nuw i8, ptr %.0.i.i.i, i64 8
  store ptr %7, ptr %18, align 8
  store ptr null, ptr %.0.i.i.i, align 8
  %19 = getelementptr inbounds nuw i8, ptr %3, i64 24
  %20 = load ptr, ptr %19, align 8
  store ptr %.0.i.i.i, ptr %20, align 8
  store ptr %.0.i.i.i, ptr %19, align 8
  br label %23

21:                                               ; preds = %4
  %22 = tail call ptr @tcg_constant_i32(i32 noundef %2) #6
  tail call void @tcg_gen_brcond_i32(i32 noundef %0, ptr noundef %1, ptr noundef %22, ptr noundef %3)
  br label %23

23:                                               ; preds = %4, %21, %tcg_gen_br.exit
  ret void
}